; ModuleID = '31/1506.c'
source_filename = "31/1506.c"
target datalayout = "e-m:e-p270:32:32-p271:32:32-p272:64:64-i64:64-f80:128-n8:16:32:64-S128"
target triple = "x86_64-pc-linux-gnu"

%struct.student = type { [9 x i8], [20 x i8], [1 x i8], i32, float, [20 x i8], %struct.student* }

@n = common dso_local global i32 0, align 4
@.str = private unnamed_addr constant [3 x i8] c"%s\00", align 1
@.str.1 = private unnamed_addr constant [11 x i8] c"%s%s%d%f%s\00", align 1
@.str.2 = private unnamed_addr constant [19 x i8] c"%s %s %s %d %g %s\0A\00", align 1

; Function Attrs: noinline nounwind uwtable
define dso_local void @main() #0 {
  %1 = alloca i32, align 4
  %2 = alloca %struct.student*, align 8
  %3 = alloca %struct.student*, align 8
  %4 = alloca %struct.student*, align 8
  store i32 0, i32* @n, align 4
  %5 = call noalias i8* @malloc(i64 100) #3
  %6 = bitcast i8* %5 to %struct.student*
  store %struct.student* %6, %struct.student** %3, align 8
  store %struct.student* %6, %struct.student** %2, align 8
  store %struct.student* null, %struct.student** %4, align 8
  store i32 0, i32* @n, align 4
  br label %7

7:                                                ; preds = %49, %0
  %8 = load i32, i32* @n, align 4
  %9 = add nsw i32 %8, 1
  store i32 %9, i32* @n, align 4
  %10 = call noalias i8* @malloc(i64 100) #3
  %11 = bitcast i8* %10 to %struct.student*
  store %struct.student* %11, %struct.student** %2, align 8
  %12 = load i32, i32* @n, align 4
  %13 = icmp eq i32 %12, 1
  br i1 %13, label %14, label %17

14:                                               ; preds = %7
  %15 = load %struct.student*, %struct.student** %3, align 8
  %16 = getelementptr inbounds %struct.student, %struct.student* %15, i32 0, i32 6
  store %struct.student* null, %struct.student** %16, align 8
  br label %17

17:                                               ; preds = %14, %7
  %18 = load %struct.student*, %struct.student** %2, align 8
  %19 = getelementptr inbounds %struct.student, %struct.student* %18, i32 0, i32 0
  %20 = getelementptr inbounds [9 x i8], [9 x i8]* %19, i64 0, i64 0
  %21 = call i32 (i8*, ...) @__isoc99_scanf(i8* getelementptr inbounds ([3 x i8], [3 x i8]* @.str, i64 0, i64 0), i8* %20)
  %22 = load %struct.student*, %struct.student** %2, align 8
  %23 = getelementptr inbounds %struct.student, %struct.student* %22, i32 0, i32 0
  %24 = getelementptr inbounds [9 x i8], [9 x i8]* %23, i64 0, i64 0
  %25 = load i8, i8* %24, align 8
  %26 = sext i8 %25 to i32
  %27 = icmp ne i32 %26, 101
  br i1 %27, label %28, label %47

28:                                               ; preds = %17
  %29 = load %struct.student*, %struct.student** %2, align 8
  %30 = getelementptr inbounds %struct.student, %struct.student* %29, i32 0, i32 1
  %31 = getelementptr inbounds [20 x i8], [20 x i8]* %30, i64 0, i64 0
  %32 = load %struct.student*, %struct.student** %2, align 8
  %33 = getelementptr inbounds %struct.student, %struct.student* %32, i32 0, i32 2
  %34 = getelementptr inbounds [1 x i8], [1 x i8]* %33, i64 0, i64 0
  %35 = load %struct.student*, %struct.student** %2, align 8
  %36 = getelementptr inbounds %struct.student, %struct.student* %35, i32 0, i32 3
  %37 = load %struct.student*, %struct.student** %2, align 8
  %38 = getelementptr inbounds %struct.student, %struct.student* %37, i32 0, i32 4
  %39 = load %struct.student*, %struct.student** %2, align 8
  %40 = getelementptr inbounds %struct.student, %struct.student* %39, i32 0, i32 5
  %41 = getelementptr inbounds [20 x i8], [20 x i8]* %40, i64 0, i64 0
  %42 = call i32 (i8*, ...) @__isoc99_scanf(i8* getelementptr inbounds ([11 x i8], [11 x i8]* @.str.1, i64 0, i64 0), i8* %31, i8* %34, i32* %36, float* %38, i8* %41)
  %43 = load %struct.student*, %struct.student** %3, align 8
  %44 = load %struct.student*, %struct.student** %2, align 8
  %45 = getelementptr inbounds %struct.student, %struct.student* %44, i32 0, i32 6
  store %struct.student* %43, %struct.student** %45, align 8
  %46 = load %struct.student*, %struct.student** %2, align 8
  store %struct.student* %46, %struct.student** %3, align 8
  br label %49

47:                                               ; preds = %17
  %48 = load %struct.student*, %struct.student** %3, align 8
  store %struct.student* %48, %struct.student** %4, align 8
  br label %50

49:                                               ; preds = %28
  br label %7

50:                                               ; preds = %47
  %51 = load %struct.student*, %struct.student** %4, align 8
  store %struct.student* %51, %struct.student** %2, align 8
  store i32 0, i32* %1, align 4
  br label %52

52:                                               ; preds = %81, %50
  %53 = load %struct.student*, %struct.student** %2, align 8
  %54 = getelementptr inbounds %struct.student, %struct.student* %53, i32 0, i32 6
  %55 = load %struct.student*, %struct.student** %54, align 8
  %56 = icmp ne %struct.student* %55, null
  br i1 %56, label %57, label %84

57:                                               ; preds = %52
  %58 = load %struct.student*, %struct.student** %2, align 8
  %59 = getelementptr inbounds %struct.student, %struct.student* %58, i32 0, i32 0
  %60 = getelementptr inbounds [9 x i8], [9 x i8]* %59, i64 0, i64 0
  %61 = load %struct.student*, %struct.student** %2, align 8
  %62 = getelementptr inbounds %struct.student, %struct.student* %61, i32 0, i32 1
  %63 = getelementptr inbounds [20 x i8], [20 x i8]* %62, i64 0, i64 0
  %64 = load %struct.student*, %struct.student** %2, align 8
  %65 = getelementptr inbounds %struct.student, %struct.student* %64, i32 0, i32 2
  %66 = getelementptr inbounds [1 x i8], [1 x i8]* %65, i64 0, i64 0
  %67 = load %struct.student*, %struct.student** %2, align 8
  %68 = getelementptr inbounds %struct.student, %struct.student* %67, i32 0, i32 3
  %69 = load i32, i32* %68, align 8
  %70 = load %struct.student*, %struct.student** %2, align 8
  %71 = getelementptr inbounds %struct.student, %struct.student* %70, i32 0, i32 4
  %72 = load float, float* %71, align 4
  %73 = fpext float %72 to double
  %74 = load %struct.student*, %struct.student** %2, align 8
  %75 = getelementptr inbounds %struct.student, %struct.student* %74, i32 0, i32 5
  %76 = getelementptr inbounds [20 x i8], [20 x i8]* %75, i64 0, i64 0
  %77 = call i32 (i8*, ...) @printf(i8* getelementptr inbounds ([19 x i8], [19 x i8]* @.str.2, i64 0, i64 0), i8* %60, i8* %63, i8* %66, i32 %69, double %73, i8* %76)
  %78 = load %struct.student*, %struct.student** %2, align 8
  %79 = getelementptr inbounds %struct.student, %struct.student* %78, i32 0, i32 6
  %80 = load %struct.student*, %struct.student** %79, align 8
  store %struct.student* %80, %struct.student** %2, align 8
  br label %81

81:                                               ; preds = %57
  %82 = load i32, i32* %1, align 4
  %83 = add nsw i32 %82, 1
  store i32 %83, i32* %1, align 4
  br label %52

84:                                               ; preds = %52
  ret void
}

; Function Attrs: nounwind
declare dso_local noalias i8* @malloc(i64) #1

declare dso_local i32 @__isoc99_scanf(i8*, ...) #2

declare dso_local i32 @printf(i8*, ...) #2


!llvm.module.flags = !{!0}
!llvm.ident = !{!1}

!0 = !{i32 1, !"wchar_size", i32 4}
!1 = !{!"clang version 10.0.0-4ubuntu1 "}
